target datalayout = "e-m:e-p270:32:32-p271:32:32-p272:64:64-i64:64-i128:128-f80:128-n8:16:32:64-S128"
target triple = "x86_64-pc-linux-gnu"

%class.expr_map = type { ptr, i8, [7 x i8], %class.obj_map, %class.obj_map.0 }
%class.obj_map = type { %class.core_hashtable }
%class.core_hashtable = type <{ ptr, i32, i32, i32, [4 x i8] }>
%class.obj_map.0 = type { %class.core_hashtable.1 }
%class.core_hashtable.1 = type <{ ptr, i32, i32, i32, [4 x i8] }>
%"struct.obj_map<expr, expr *>::key_data" = type { ptr, ptr }
%"struct.obj_map<expr, app *>::key_data" = type { ptr, ptr }
%"class.obj_map<expr, expr *>::obj_map_entry" = type { %"struct.obj_map<expr, expr *>::key_data" }
%"class.obj_map<expr, app *>::obj_map_entry" = type { %"struct.obj_map<expr, app *>::key_data" }

; Function Attrs: inlinehint mustprogress nounwind uwtable
define linkonce_odr hidden void @_ZSt9__advanceIPN7obj_mapI4exprPS1_E13obj_map_entryElEvRT_T0_St26random_access_iterator_tag(ptr noundef nonnull align 8 dereferenceable(8) %0, i64 noundef %1) #6 comdat {
  %3 = alloca ptr, align 8
  %4 = alloca i64, align 8
  store ptr %0, ptr %3, align 8, !tbaa !118
  store i64 %1, ptr %4, align 8, !tbaa !120
  %5 = load i64, ptr %4, align 8, !tbaa !120
  %6 = call i1 @llvm.is.constant.i64(i64 %5)
  br i1 %6, label %7, label %14

7:                                                ; preds = %2
  %8 = load i64, ptr %4, align 8, !tbaa !120
  %9 = icmp eq i64 %8, 1
  br i1 %9, label %10, label %14

10:                                               ; preds = %7
  %11 = load ptr, ptr %3, align 8, !tbaa !118
  %12 = load ptr, ptr %11, align 8, !tbaa !97
  %13 = getelementptr inbounds nuw %"class.obj_map<expr, expr *>::obj_map_entry", ptr %12, i32 1
  store ptr %13, ptr %11, align 8, !tbaa !97
  br label %30

14:                                               ; preds = %7, %2
  %15 = load i64, ptr %4, align 8, !tbaa !120
  %16 = call i1 @llvm.is.constant.i64(i64 %15)
  br i1 %16, label %17, label %24

17:                                               ; preds = %14
  %18 = load i64, ptr %4, align 8, !tbaa !120
  %19 = icmp eq i64 %18, -1
  br i1 %19, label %20, label %24

20:                                               ; preds = %17
  %21 = load ptr, ptr %3, align 8, !tbaa !118
  %22 = load ptr, ptr %21, align 8, !tbaa !97
  %23 = getelementptr inbounds %"class.obj_map<expr, expr *>::obj_map_entry", ptr %22, i32 -1
  store ptr %23, ptr %21, align 8, !tbaa !97
  br label %29

24:                                               ; preds = %17, %14
  %25 = load i64, ptr %4, align 8, !tbaa !120
  %26 = load ptr, ptr %3, align 8, !tbaa !118
  %27 = load ptr, ptr %26, align 8, !tbaa !97
  %28 = getelementptr inbounds %"class.obj_map<expr, expr *>::obj_map_entry", ptr %27, i64 %25
  store ptr %28, ptr %26, align 8, !tbaa !97
  br label %29

29:                                               ; preds = %24, %20
  br label %30

30:                                               ; preds = %29, %10
  ret void
}

; Function Attrs: inlinehint mustprogress nounwind uwtable
define linkonce_odr hidden void @_ZSt19__iterator_categoryIPN7obj_mapI4exprPS1_E13obj_map_entryEENSt15iterator_traitsIT_E17iterator_categoryERKS7_(ptr noundef nonnull align 8 dereferenceable(8) %0) #6 comdat {
  %2 = alloca ptr, align 8
  store ptr %0, ptr %2, align 8, !tbaa !118
  ret void
}

; Function Attrs: inlinehint mustprogress nounwind uwtable
define linkonce_odr hidden void @_ZSt9__advanceIPN7obj_mapI4exprP3appE13obj_map_entryElEvRT_T0_St26random_access_iterator_tag(ptr noundef nonnull align 8 dereferenceable(8) %0, i64 noundef %1) #6 comdat {
  %3 = alloca ptr, align 8
  %4 = alloca i64, align 8
  store ptr %0, ptr %3, align 8, !tbaa !125
  store i64 %1, ptr %4, align 8, !tbaa !120
  %5 = load i64, ptr %4, align 8, !tbaa !120
  %6 = call i1 @llvm.is.constant.i64(i64 %5)
  br i1 %6, label %7, label %14

7:                                                ; preds = %2
  %8 = load i64, ptr %4, align 8, !tbaa !120
  %9 = icmp eq i64 %8, 1
  br i1 %9, label %10, label %14

10:                                               ; preds = %7
  %11 = load ptr, ptr %3, align 8, !tbaa !125
  %12 = load ptr, ptr %11, align 8, !tbaa !100
  %13 = getelementptr inbounds nuw %"class.obj_map<expr, app *>::obj_map_entry", ptr %12, i32 1
  store ptr %13, ptr %11, align 8, !tbaa !100
  br label %30

14:                                               ; preds = %7, %2
  %15 = load i64, ptr %4, align 8, !tbaa !120
  %16 = call i1 @llvm.is.constant.i64(i64 %15)
  br i1 %16, label %17, label %24

17:                                               ; preds = %14
  %18 = load i64, ptr %4, align 8, !tbaa !120
  %19 = icmp eq i64 %18, -1
  br i1 %19, label %20, label %24

20:                                               ; preds = %17
  %21 = load ptr, ptr %3, align 8, !tbaa !125
  %22 = load ptr, ptr %21, align 8, !tbaa !100
  %23 = getelementptr inbounds %"class.obj_map<expr, app *>::obj_map_entry", ptr %22, i32 -1
  store ptr %23, ptr %21, align 8, !tbaa !100
  br label %29

24:                                               ; preds = %17, %14
  %25 = load i64, ptr %4, align 8, !tbaa !120
  %26 = load ptr, ptr %3, align 8, !tbaa !125
  %27 = load ptr, ptr %26, align 8, !tbaa !100
  %28 = getelementptr inbounds %"class.obj_map<expr, app *>::obj_map_entry", ptr %27, i64 %25
  store ptr %28, ptr %26, align 8, !tbaa !100
  br label %29

29:                                               ; preds = %24, %20
  br label %30

30:                                               ; preds = %29, %10
  ret void
}

; Function Attrs: inlinehint mustprogress nounwind uwtable
define linkonce_odr hidden void @_ZSt19__iterator_categoryIPN7obj_mapI4exprP3appE13obj_map_entryEENSt15iterator_traitsIT_E17iterator_categoryERKS8_(ptr noundef nonnull align 8 dereferenceable(8) %0) #6 comdat {
  %2 = alloca ptr, align 8
  store ptr %0, ptr %2, align 8, !tbaa !125
  ret void
}

; Function Attrs: inlinehint mustprogress uwtable
define linkonce_odr hidden void @_ZSt7advanceIPN7obj_mapI4exprPS1_E13obj_map_entryEjEvRT_T0_(ptr noundef nonnull align 8 dereferenceable(8) %0, i32 noundef %1) #9 comdat {
  %3 = alloca ptr, align 8
  %4 = alloca i32, align 4
  %5 = alloca i64, align 8
  store ptr %0, ptr %3, align 8, !tbaa !118
  store i32 %1, ptr %4, align 4, !tbaa !117
  call void @llvm.lifetime.start.p0(i64 8, ptr %5) #3
  %6 = load i32, ptr %4, align 4, !tbaa !117
  %7 = zext i32 %6 to i64
  store i64 %7, ptr %5, align 8, !tbaa !120
  %8 = load ptr, ptr %3, align 8, !tbaa !118
  %9 = load i64, ptr %5, align 8, !tbaa !120
  %10 = load ptr, ptr %3, align 8, !tbaa !118
  call void @_ZSt19__iterator_categoryIPN7obj_mapI4exprPS1_E13obj_map_entryEENSt15iterator_traitsIT_E17iterator_categoryERKS7_(ptr noundef nonnull align 8 dereferenceable(8) %10)
  call void @_ZSt9__advanceIPN7obj_mapI4exprPS1_E13obj_map_entryElEvRT_T0_St26random_access_iterator_tag(ptr noundef nonnull align 8 dereferenceable(8) %8, i64 noundef %9)
  call void @llvm.lifetime.end.p0(i64 8, ptr %5) #3
  ret void
}

; Function Attrs: inlinehint mustprogress uwtable
define linkonce_odr hidden void @_ZSt7advanceIPN7obj_mapI4exprP3appE13obj_map_entryEjEvRT_T0_(ptr noundef nonnull align 8 dereferenceable(8) %0, i32 noundef %1) #9 comdat {
  %3 = alloca ptr, align 8
  %4 = alloca i32, align 4
  %5 = alloca i64, align 8
  store ptr %0, ptr %3, align 8, !tbaa !125
  store i32 %1, ptr %4, align 4, !tbaa !117
  call void @llvm.lifetime.start.p0(i64 8, ptr %5) #3
  %6 = load i32, ptr %4, align 4, !tbaa !117
  %7 = zext i32 %6 to i64
  store i64 %7, ptr %5, align 8, !tbaa !120
  %8 = load ptr, ptr %3, align 8, !tbaa !125
  %9 = load i64, ptr %5, align 8, !tbaa !120
  %10 = load ptr, ptr %3, align 8, !tbaa !125
  call void @_ZSt19__iterator_categoryIPN7obj_mapI4exprP3appE13obj_map_entryEENSt15iterator_traitsIT_E17iterator_categoryERKS8_(ptr noundef nonnull align 8 dereferenceable(8) %10)
  call void @_ZSt9__advanceIPN7obj_mapI4exprP3appE13obj_map_entryElEvRT_T0_St26random_access_iterator_tag(ptr noundef nonnull align 8 dereferenceable(8) %8, i64 noundef %9)
  call void @llvm.lifetime.end.p0(i64 8, ptr %5) #3
  ret void
}

; Function Attrs: mustprogress uwtable
define linkonce_odr hidden noundef ptr @_ZNSt14_Destroy_n_auxILb1EE11__destroy_nIPN7obj_mapI4exprPS3_E13obj_map_entryEjEET_S8_T0_(ptr noundef %0, i32 noundef %1) #4 comdat align 2 {
  %3 = alloca ptr, align 8
  %4 = alloca i32, align 4
  store ptr %0, ptr %3, align 8, !tbaa !97
  store i32 %1, ptr %4, align 4, !tbaa !117
  %5 = load i32, ptr %4, align 4, !tbaa !117
  call void @_ZSt7advanceIPN7obj_mapI4exprPS1_E13obj_map_entryEjEvRT_T0_(ptr noundef nonnull align 8 dereferenceable(8) %3, i32 noundef %5)
  %6 = load ptr, ptr %3, align 8, !tbaa !97
  ret ptr %6
}

; Function Attrs: mustprogress uwtable
define linkonce_odr hidden noundef ptr @_ZNSt14_Destroy_n_auxILb1EE11__destroy_nIPN7obj_mapI4exprP3appE13obj_map_entryEjEET_S9_T0_(ptr noundef %0, i32 noundef %1) #4 comdat align 2 {
  %3 = alloca ptr, align 8
  %4 = alloca i32, align 4
  store ptr %0, ptr %3, align 8, !tbaa !100
  store i32 %1, ptr %4, align 4, !tbaa !117
  %5 = load i32, ptr %4, align 4, !tbaa !117
  call void @_ZSt7advanceIPN7obj_mapI4exprP3appE13obj_map_entryEjEvRT_T0_(ptr noundef nonnull align 8 dereferenceable(8) %3, i32 noundef %5)
  %6 = load ptr, ptr %3, align 8, !tbaa !100
  ret ptr %6
}

; Function Attrs: inlinehint mustprogress uwtable
define linkonce_odr hidden noundef ptr @_ZSt10_Destroy_nIPN7obj_mapI4exprPS1_E13obj_map_entryEjET_S6_T0_(ptr noundef %0, i32 noundef %1) #9 comdat {
  %3 = alloca ptr, align 8
  %4 = alloca i32, align 4
  store ptr %0, ptr %3, align 8, !tbaa !97
  store i32 %1, ptr %4, align 4, !tbaa !117
  %5 = load ptr, ptr %3, align 8, !tbaa !97
  %6 = load i32, ptr %4, align 4, !tbaa !117
  %7 = call noundef ptr @_ZNSt14_Destroy_n_auxILb1EE11__destroy_nIPN7obj_mapI4exprPS3_E13obj_map_entryEjEET_S8_T0_(ptr noundef %5, i32 noundef %6)
  ret ptr %7
}

; Function Attrs: inlinehint mustprogress uwtable
define linkonce_odr hidden noundef ptr @_ZSt10_Destroy_nIPN7obj_mapI4exprP3appE13obj_map_entryEjET_S7_T0_(ptr noundef %0, i32 noundef %1) #9 comdat {
  %3 = alloca ptr, align 8
  %4 = alloca i32, align 4
  store ptr %0, ptr %3, align 8, !tbaa !100
  store i32 %1, ptr %4, align 4, !tbaa !117
  %5 = load ptr, ptr %3, align 8, !tbaa !100
  %6 = load i32, ptr %4, align 4, !tbaa !117
  %7 = call noundef ptr @_ZNSt14_Destroy_n_auxILb1EE11__destroy_nIPN7obj_mapI4exprP3appE13obj_map_entryEjEET_S9_T0_(ptr noundef %5, i32 noundef %6)
  ret ptr %7
}

; Function Attrs: inlinehint mustprogress uwtable
define linkonce_odr hidden noundef ptr @_ZSt9destroy_nIPN7obj_mapI4exprPS1_E13obj_map_entryEjET_S6_T0_(ptr noundef %0, i32 noundef %1) #9 comdat {
  %3 = alloca ptr, align 8
  %4 = alloca i32, align 4
  store ptr %0, ptr %3, align 8, !tbaa !97
  store i32 %1, ptr %4, align 4, !tbaa !117
  %5 = load ptr, ptr %3, align 8, !tbaa !97
  %6 = load i32, ptr %4, align 4, !tbaa !117
  %7 = call noundef ptr @_ZSt10_Destroy_nIPN7obj_mapI4exprPS1_E13obj_map_entryEjET_S6_T0_(ptr noundef %5, i32 noundef %6)
  ret ptr %7
}

; Function Attrs: inlinehint mustprogress uwtable
define linkonce_odr hidden noundef ptr @_ZSt9destroy_nIPN7obj_mapI4exprP3appE13obj_map_entryEjET_S7_T0_(ptr noundef %0, i32 noundef %1) #9 comdat {
  %3 = alloca ptr, align 8
  %4 = alloca i32, align 4
  store ptr %0, ptr %3, align 8, !tbaa !100
  store i32 %1, ptr %4, align 4, !tbaa !117
  %5 = load ptr, ptr %3, align 8, !tbaa !100
  %6 = load i32, ptr %4, align 4, !tbaa !117
  %7 = call noundef ptr @_ZSt10_Destroy_nIPN7obj_mapI4exprP3appE13obj_map_entryEjET_S7_T0_(ptr noundef %5, i32 noundef %6)
  ret ptr %7
}

; Function Attrs: mustprogress uwtable
define linkonce_odr hidden void @_Z12dealloc_vectIN7obj_mapI4exprPS1_E13obj_map_entryEEvPT_j(ptr noundef %0, i32 noundef %1) #4 comdat {
  %3 = alloca ptr, align 8
  %4 = alloca i32, align 4
  store ptr %0, ptr %3, align 8, !tbaa !97
  store i32 %1, ptr %4, align 4, !tbaa !117
  %5 = load ptr, ptr %3, align 8, !tbaa !97
  %6 = icmp eq ptr %5, null
  br i1 %6, label %7, label %8

7:                                                ; preds = %2
  br label %13

8:                                                ; preds = %2
  %9 = load ptr, ptr %3, align 8, !tbaa !97
  %10 = load i32, ptr %4, align 4, !tbaa !117
  %11 = call noundef ptr @_ZSt9destroy_nIPN7obj_mapI4exprPS1_E13obj_map_entryEjET_S6_T0_(ptr noundef %9, i32 noundef %10)
  %12 = load ptr, ptr %3, align 8, !tbaa !97
  call void @_ZN6memory10deallocateEPv(ptr noundef %12)
  br label %13

13:                                               ; preds = %8, %7
  ret void
}

; Function Attrs: mustprogress uwtable
define linkonce_odr hidden void @_Z12dealloc_vectIN7obj_mapI4exprP3appE13obj_map_entryEEvPT_j(ptr noundef %0, i32 noundef %1) #4 comdat {
  %3 = alloca ptr, align 8
  %4 = alloca i32, align 4
  store ptr %0, ptr %3, align 8, !tbaa !100
  store i32 %1, ptr %4, align 4, !tbaa !117
  %5 = load ptr, ptr %3, align 8, !tbaa !100
  %6 = icmp eq ptr %5, null
  br i1 %6, label %7, label %8

7:                                                ; preds = %2
  br label %13

8:                                                ; preds = %2
  %9 = load ptr, ptr %3, align 8, !tbaa !100
  %10 = load i32, ptr %4, align 4, !tbaa !117
  %11 = call noundef ptr @_ZSt9destroy_nIPN7obj_mapI4exprP3appE13obj_map_entryEjET_S7_T0_(ptr noundef %9, i32 noundef %10)
  %12 = load ptr, ptr %3, align 8, !tbaa !100
  call void @_ZN6memory10deallocateEPv(ptr noundef %12)
  br label %13

13:                                               ; preds = %8, %7
  ret void
}

; Function Attrs: mustprogress uwtable
define linkonce_odr hidden void @_ZN14core_hashtableIN7obj_mapI4exprPS1_E13obj_map_entryE8obj_hashINS3_8key_dataEE10default_eqIS6_EE12delete_tableEv(ptr noundef nonnull align 8 dereferenceable(20) %0) #4 comdat align 2 {
  %2 = alloca ptr, align 8
  store ptr %0, ptr %2, align 8, !tbaa !113
  %3 = load ptr, ptr %2, align 8
  %4 = getelementptr inbounds nuw %class.core_hashtable, ptr %3, i32 0, i32 0
  %5 = load ptr, ptr %4, align 8, !tbaa !115
  %6 = getelementptr inbounds nuw %class.core_hashtable, ptr %3, i32 0, i32 1
  %7 = load i32, ptr %6, align 8, !tbaa !116
  call void @_Z12dealloc_vectIN7obj_mapI4exprPS1_E13obj_map_entryEEvPT_j(ptr noundef %5, i32 noundef %7)
  %8 = getelementptr inbounds nuw %class.core_hashtable, ptr %3, i32 0, i32 0
  store ptr null, ptr %8, align 8, !tbaa !115
  ret void
}

; Function Attrs: mustprogress uwtable
define linkonce_odr hidden void @_ZN14core_hashtableIN7obj_mapI4exprP3appE13obj_map_entryE8obj_hashINS4_8key_dataEE10default_eqIS7_EE12delete_tableEv(ptr noundef nonnull align 8 dereferenceable(20) %0) #4 comdat align 2 {
  %2 = alloca ptr, align 8
  store ptr %0, ptr %2, align 8, !tbaa !121
  %3 = load ptr, ptr %2, align 8
  %4 = getelementptr inbounds nuw %class.core_hashtable.1, ptr %3, i32 0, i32 0
  %5 = load ptr, ptr %4, align 8, !tbaa !123
  %6 = getelementptr inbounds nuw %class.core_hashtable.1, ptr %3, i32 0, i32 1
  %7 = load i32, ptr %6, align 8, !tbaa !124
  call void @_Z12dealloc_vectIN7obj_mapI4exprP3appE13obj_map_entryEEvPT_j(ptr noundef %5, i32 noundef %7)
  %8 = getelementptr inbounds nuw %class.core_hashtable.1, ptr %3, i32 0, i32 0
  store ptr null, ptr %8, align 8, !tbaa !123
  ret void
}

; Function Attrs: mustprogress nounwind uwtable
define linkonce_odr hidden void @_ZN14core_hashtableIN7obj_mapI4exprPS1_E13obj_map_entryE8obj_hashINS3_8key_dataEE10default_eqIS6_EED2Ev(ptr noundef nonnull align 8 dereferenceable(20) %0) unnamed_addr #5 comdat align 2 personality ptr @__gxx_personality_v0 {
  %2 = alloca ptr, align 8
  store ptr %0, ptr %2, align 8, !tbaa !113
  %3 = load ptr, ptr %2, align 8
  invoke void @_ZN14core_hashtableIN7obj_mapI4exprPS1_E13obj_map_entryE8obj_hashINS3_8key_dataEE10default_eqIS6_EE12delete_tableEv(ptr noundef nonnull align 8 dereferenceable(20) %3)
          to label %4 unwind label %5

4:                                                ; preds = %1
  ret void

5:                                                ; preds = %1
  %6 = landingpad { ptr, i32 }
          catch ptr null
  %7 = extractvalue { ptr, i32 } %6, 0
  call void @__clang_call_terminate(ptr %7) #12
  unreachable
}

; Function Attrs: mustprogress nounwind uwtable
define linkonce_odr hidden void @_ZN14core_hashtableIN7obj_mapI4exprP3appE13obj_map_entryE8obj_hashINS4_8key_dataEE10default_eqIS7_EED2Ev(ptr noundef nonnull align 8 dereferenceable(20) %0) unnamed_addr #5 comdat align 2 personality ptr @__gxx_personality_v0 {
  %2 = alloca ptr, align 8
  store ptr %0, ptr %2, align 8, !tbaa !121
  %3 = load ptr, ptr %2, align 8
  invoke void @_ZN14core_hashtableIN7obj_mapI4exprP3appE13obj_map_entryE8obj_hashINS4_8key_dataEE10default_eqIS7_EE12delete_tableEv(ptr noundef nonnull align 8 dereferenceable(20) %3)
          to label %4 unwind label %5

4:                                                ; preds = %1
  ret void

5:                                                ; preds = %1
  %6 = landingpad { ptr, i32 }
          catch ptr null
  %7 = extractvalue { ptr, i32 } %6, 0
  call void @__clang_call_terminate(ptr %7) #12
  unreachable
}

; Function Attrs: inlinehint mustprogress nounwind uwtable
define linkonce_odr hidden void @_ZN7obj_mapI4exprPS0_ED2Ev(ptr noundef nonnull align 8 dereferenceable(24) %0) unnamed_addr #6 comdat align 2 {
  %2 = alloca ptr, align 8
  store ptr %0, ptr %2, align 8, !tbaa !86
  %3 = load ptr, ptr %2, align 8
  %4 = getelementptr inbounds nuw %class.obj_map, ptr %3, i32 0, i32 0
  call void @_ZN14core_hashtableIN7obj_mapI4exprPS1_E13obj_map_entryE8obj_hashINS3_8key_dataEE10default_eqIS6_EED2Ev(ptr noundef nonnull align 8 dereferenceable(20) %4) #3
  ret void
}

; Function Attrs: inlinehint mustprogress nounwind uwtable
define linkonce_odr hidden void @_ZN7obj_mapI4exprP3appED2Ev(ptr noundef nonnull align 8 dereferenceable(24) %0) unnamed_addr #6 comdat align 2 {
  %2 = alloca ptr, align 8
  store ptr %0, ptr %2, align 8, !tbaa !88
  %3 = load ptr, ptr %2, align 8
  %4 = getelementptr inbounds nuw %class.obj_map.0, ptr %3, i32 0, i32 0
  call void @_ZN14core_hashtableIN7obj_mapI4exprP3appE13obj_map_entryE8obj_hashINS4_8key_dataEE10default_eqIS7_EED2Ev(ptr noundef nonnull align 8 dereferenceable(20) %4) #3
  ret void
}

; Function Attrs: mustprogress uwtable
define hidden void @_ZN8expr_map5resetEv(ptr noundef nonnull align 8 dereferenceable(64) %0) #4 align 2 {
  %2 = alloca ptr, align 8
  store ptr %0, ptr %2, align 8, !tbaa !3
  %3 = load ptr, ptr %2, align 8
  %4 = getelementptr inbounds nuw %class.expr_map, ptr %3, i32 0, i32 0
  %5 = load ptr, ptr %4, align 8, !tbaa !93
  %6 = getelementptr inbounds nuw %class.expr_map, ptr %3, i32 0, i32 4
  call void @_Z14dec_ref_valuesI11ast_manager7obj_mapI4exprP3appEEvRT_RT0_(ptr noundef nonnull align 8 dereferenceable(976) %5, ptr noundef nonnull align 8 dereferenceable(24) %6)
  %7 = getelementptr inbounds nuw %class.expr_map, ptr %3, i32 0, i32 0
  %8 = load ptr, ptr %7, align 8, !tbaa !93
  %9 = getelementptr inbounds nuw %class.expr_map, ptr %3, i32 0, i32 3
  call void @_Z18dec_ref_key_valuesI11ast_manager7obj_mapI4exprPS2_EEvRT_RT0_(ptr noundef nonnull align 8 dereferenceable(976) %8, ptr noundef nonnull align 8 dereferenceable(24) %9)
  ret void
}

; Function Attrs: mustprogress nounwind uwtable
define hidden void @_ZN8expr_mapD2Ev(ptr noundef nonnull align 8 dereferenceable(64) %0) unnamed_addr #5 align 2 personality ptr @__gxx_personality_v0 {
  %2 = alloca ptr, align 8
  store ptr %0, ptr %2, align 8, !tbaa !3
  %3 = load ptr, ptr %2, align 8
  invoke void @_ZN8expr_map5resetEv(ptr noundef nonnull align 8 dereferenceable(64) %3)
          to label %4 unwind label %7

4:                                                ; preds = %1
  %5 = getelementptr inbounds nuw %class.expr_map, ptr %3, i32 0, i32 4
  call void @_ZN7obj_mapI4exprP3appED2Ev(ptr noundef nonnull align 8 dereferenceable(24) %5) #3
  %6 = getelementptr inbounds nuw %class.expr_map, ptr %3, i32 0, i32 3
  call void @_ZN7obj_mapI4exprPS0_ED2Ev(ptr noundef nonnull align 8 dereferenceable(24) %6) #3
  ret void

7:                                                ; preds = %1
  %8 = landingpad { ptr, i32 }
          catch ptr null
  %9 = extractvalue { ptr, i32 } %8, 0
  call void @__clang_call_terminate(ptr %9) #12
  unreachable
}