; Function Attrs: mustprogress nounwind uwtable
define hidden void @_ZN8expr_mapD2Ev(ptr noundef nonnull align 8 dereferenceable(64) %0) unnamed_addr #5 align 2 personality ptr @__gxx_personality_v0 {
  %2 = load ptr, ptr %0, align 8, !tbaa !92
  %3 = getelementptr inbounds nuw i8, ptr %0, i64 40
  invoke void @_Z14dec_ref_valuesI11ast_manager7obj_mapI4exprP3appEEvRT_RT0_(ptr noundef nonnull align 8 dereferenceable(976) %2, ptr noundef nonnull align 8 dereferenceable(24) %3)
          to label %.noexc unwind label %18

.noexc:                                           ; preds = %1
  %4 = load ptr, ptr %0, align 8, !tbaa !92
  %5 = getelementptr inbounds nuw i8, ptr %0, i64 16
  invoke void @_Z18dec_ref_key_valuesI11ast_manager7obj_mapI4exprPS2_EEvRT_RT0_(ptr noundef nonnull align 8 dereferenceable(976) %4, ptr noundef nonnull align 8 dereferenceable(24) %5)
          to label %_ZN8expr_map5resetEv.exit unwind label %18

_ZN8expr_map5resetEv.exit:                        ; preds = %.noexc
  %6 = load ptr, ptr %3, align 8, !tbaa !88
  %7 = icmp eq ptr %6, null
  br i1 %7, label %_ZN7obj_mapI4exprP3appED2Ev.exit, label %8

8:                                                ; preds = %_ZN8expr_map5resetEv.exit
  invoke void @_ZN6memory10deallocateEPv(ptr noundef nonnull %6)
          to label %_ZN7obj_mapI4exprP3appED2Ev.exit unwind label %9

9:                                                ; preds = %8
  %10 = landingpad { ptr, i32 }
          catch ptr null
  %11 = extractvalue { ptr, i32 } %10, 0
  tail call void @__clang_call_terminate(ptr %11) #14
  unreachable

_ZN7obj_mapI4exprP3appED2Ev.exit:                 ; preds = %_ZN8expr_map5resetEv.exit, %8
  store ptr null, ptr %3, align 8, !tbaa !88
  %12 = load ptr, ptr %5, align 8, !tbaa !84
  %13 = icmp eq ptr %12, null
  br i1 %13, label %_ZN7obj_mapI4exprPS0_ED2Ev.exit, label %14

14:                                               ; preds = %_ZN7obj_mapI4exprP3appED2Ev.exit
  invoke void @_ZN6memory10deallocateEPv(ptr noundef nonnull %12)
          to label %_ZN7obj_mapI4exprPS0_ED2Ev.exit unwind label %15

15:                                               ; preds = %14
  %16 = landingpad { ptr, i32 }
          catch ptr null
  %17 = extractvalue { ptr, i32 } %16, 0
  tail call void @__clang_call_terminate(ptr %17) #14
  unreachable

_ZN7obj_mapI4exprPS0_ED2Ev.exit:                  ; preds = %_ZN7obj_mapI4exprP3appED2Ev.exit, %14
  store ptr null, ptr %5, align 8, !tbaa !84
  ret void

18:                                               ; preds = %.noexc, %1
  %19 = landingpad { ptr, i32 }
          catch ptr null
  %20 = extractvalue { ptr, i32 } %19, 0
  tail call void @__clang_call_terminate(ptr %20) #14
  unreachable
}